
AMIT_project.elf:     file format elf32-avr

Sections:
Idx Name          Size      VMA       LMA       File off  Algn
  0 .text         00000080  00000000  00000000  00000074  2**1
                  CONTENTS, ALLOC, LOAD, READONLY, CODE
  1 .data         00000000  00800060  00800060  00000494  2**0
                  ALLOC, LOAD, DATA
  2 .comment      0000002f  00000000  00000000  00000494  2**0
                  CONTENTS, READONLY
  3 .stack.descriptors.hdr 00000046  00000000  00000000  000004c3  2**0
                  CONTENTS, READONLY
  4 .debug_aranges 000000e0  00000000  00000000  00000509  2**0
                  CONTENTS, READONLY, DEBUGGING
  5 .debug_info   00001825  00000000  00000000  000005e9  2**0
                  CONTENTS, READONLY, DEBUGGING
  6 .debug_abbrev 000008d9  00000000  00000000  00001e0e  2**0
                  CONTENTS, READONLY, DEBUGGING
  7 .debug_line   000008d8  00000000  00000000  000026e7  2**0
                  CONTENTS, READONLY, DEBUGGING
  8 .debug_frame  00000140  00000000  00000000  00002fc0  2**2
                  CONTENTS, READONLY, DEBUGGING
  9 .debug_str    000001e1  00000000  00000000  00003100  2**0
                  CONTENTS, READONLY, DEBUGGING
 10 .debug_loc    000005d8  00000000  00000000  000032e1  2**0
                  CONTENTS, READONLY, DEBUGGING
 11 .debug_ranges 000000c0  00000000  00000000  000038b9  2**0
                  CONTENTS, READONLY, DEBUGGING
 12 .text         00000004  0000040e  0000040e  00000482  2**1
                  CONTENTS, ALLOC, LOAD, READONLY, CODE
 13 .note.gnu.avr.deviceinfo 0000003c  00000000  00000000  0000397c  2**2
                  CONTENTS, READONLY, DEBUGGING
 14 .text.H7sgment_init 0000000a  000003e4  000003e4  00000458  2**1
                  CONTENTS, ALLOC, LOAD, READONLY, CODE
 15 .text.H7segment_write_number 0000004c  000002a6  000002a6  0000031a  2**1
                  CONTENTS, ALLOC, LOAD, READONLY, CODE
 16 .text.H7segment_Enable_left 00000008  000003ee  000003ee  00000462  2**1
                  CONTENTS, ALLOC, LOAD, READONLY, CODE
 17 .text.H7segment_Disable_left 00000008  000003f6  000003f6  0000046a  2**1
                  CONTENTS, ALLOC, LOAD, READONLY, CODE
 18 .text.H7segment_Enable_right 00000008  000003fe  000003fe  00000472  2**1
                  CONTENTS, ALLOC, LOAD, READONLY, CODE
 19 .text.H7segment_Disable_right 00000008  00000406  00000406  0000047a  2**1
                  CONTENTS, ALLOC, LOAD, READONLY, CODE
 20 .text.H7segment_operation 00000094  00000212  00000212  00000286  2**1
                  CONTENTS, ALLOC, LOAD, READONLY, CODE
 21 .text.PB_init 00000004  00000412  00000412  00000486  2**1
                  CONTENTS, ALLOC, LOAD, READONLY, CODE
 22 .text.main    00000192  00000080  00000080  000000f4  2**1
                  CONTENTS, ALLOC, LOAD, READONLY, CODE
 23 .text.init_ADC 0000001a  00000390  00000390  00000404  2**1
                  CONTENTS, ALLOC, LOAD, READONLY, CODE
 24 .text.ADC_read 00000030  000002f2  000002f2  00000366  2**1
                  CONTENTS, ALLOC, LOAD, READONLY, CODE
 25 .text.MEEPROM_write 00000018  000003aa  000003aa  0000041e  2**1
                  CONTENTS, ALLOC, LOAD, READONLY, CODE
 26 .text.libgcc.div 00000028  00000322  00000322  00000396  2**1
                  CONTENTS, ALLOC, LOAD, READONLY, CODE
 27 .text.libgcc  0000000c  000003d8  000003d8  0000044c  2**1
                  CONTENTS, ALLOC, LOAD, READONLY, CODE
 28 .text.libgcc.mul 0000001e  00000372  00000372  000003e6  2**1
                  CONTENTS, ALLOC, LOAD, READONLY, CODE
 29 .text.libgcc.div 00000028  0000034a  0000034a  000003be  2**1
                  CONTENTS, ALLOC, LOAD, READONLY, CODE
 30 .text.__dummy_fini 00000002  0000041a  0000041a  0000048e  2**1
                  CONTENTS, ALLOC, LOAD, READONLY, CODE
 31 .text.__dummy_funcs_on_exit 00000002  0000041c  0000041c  00000490  2**1
                  CONTENTS, ALLOC, LOAD, READONLY, CODE
 32 .text.__dummy_simulator_exit 00000002  0000041e  0000041e  00000492  2**1
                  CONTENTS, ALLOC, LOAD, READONLY, CODE
 33 .text.exit    00000016  000003c2  000003c2  00000436  2**1
                  CONTENTS, ALLOC, LOAD, READONLY, CODE
 34 .text._Exit   00000004  00000416  00000416  0000048a  2**1
                  CONTENTS, ALLOC, LOAD, READONLY, CODE

Disassembly of section .text:

00000000 <__vectors>:
   0:	0c 94 34 00 	jmp	0x68	; 0x68 <__ctors_end>
   4:	0c 94 07 02 	jmp	0x40e	; 0x40e <__bad_interrupt>
   8:	0c 94 07 02 	jmp	0x40e	; 0x40e <__bad_interrupt>
   c:	0c 94 07 02 	jmp	0x40e	; 0x40e <__bad_interrupt>
  10:	0c 94 07 02 	jmp	0x40e	; 0x40e <__bad_interrupt>
  14:	0c 94 07 02 	jmp	0x40e	; 0x40e <__bad_interrupt>
  18:	0c 94 07 02 	jmp	0x40e	; 0x40e <__bad_interrupt>
  1c:	0c 94 07 02 	jmp	0x40e	; 0x40e <__bad_interrupt>
  20:	0c 94 07 02 	jmp	0x40e	; 0x40e <__bad_interrupt>
  24:	0c 94 07 02 	jmp	0x40e	; 0x40e <__bad_interrupt>
  28:	0c 94 07 02 	jmp	0x40e	; 0x40e <__bad_interrupt>
  2c:	0c 94 07 02 	jmp	0x40e	; 0x40e <__bad_interrupt>
  30:	0c 94 07 02 	jmp	0x40e	; 0x40e <__bad_interrupt>
  34:	0c 94 07 02 	jmp	0x40e	; 0x40e <__bad_interrupt>
  38:	0c 94 07 02 	jmp	0x40e	; 0x40e <__bad_interrupt>
  3c:	0c 94 07 02 	jmp	0x40e	; 0x40e <__bad_interrupt>
  40:	0c 94 07 02 	jmp	0x40e	; 0x40e <__bad_interrupt>
  44:	0c 94 07 02 	jmp	0x40e	; 0x40e <__bad_interrupt>
  48:	0c 94 07 02 	jmp	0x40e	; 0x40e <__bad_interrupt>
  4c:	0c 94 07 02 	jmp	0x40e	; 0x40e <__bad_interrupt>
  50:	0c 94 07 02 	jmp	0x40e	; 0x40e <__bad_interrupt>
  54:	5b 01       	movw	r10, r22
  56:	5e 01       	movw	r10, r28
  58:	61 01       	movw	r12, r2
  5a:	64 01       	movw	r12, r8
  5c:	67 01       	movw	r12, r14
  5e:	6a 01       	movw	r12, r20
  60:	6d 01       	movw	r12, r26
  62:	70 01       	movw	r14, r0
  64:	73 01       	movw	r14, r6
  66:	76 01       	movw	r14, r12

00000068 <__ctors_end>:
  68:	11 24       	eor	r1, r1
  6a:	1f be       	out	0x3f, r1	; 63
  6c:	cf e5       	ldi	r28, 0x5F	; 95
  6e:	d8 e0       	ldi	r29, 0x08	; 8
  70:	de bf       	out	0x3e, r29	; 62
  72:	cd bf       	out	0x3d, r28	; 61
  74:	0e 94 40 00 	call	0x80	; 0x80 <_etext>
  78:	0c 94 e1 01 	jmp	0x3c2	; 0x3c2 <exit>

0000007c <_exit>:
  7c:	f8 94       	cli

0000007e <__stop_program>:
  7e:	ff cf       	rjmp	.-2      	; 0x7e <__stop_program>

Disassembly of section .text:

0000040e <__bad_interrupt>:
 40e:	0c 94 00 00 	jmp	0	; 0x0 <__TEXT_REGION_ORIGIN__>

Disassembly of section .text.H7sgment_init:

000003e4 <H7sgment_init>:
#include <avr/io.h>
#include <avr/delay.h>

void H7sgment_init()
{
	DDRD = 0b00001111;
 3e4:	8f e0       	ldi	r24, 0x0F	; 15
 3e6:	81 bb       	out	0x11, r24	; 17
	DDRB = 0xff;
 3e8:	8f ef       	ldi	r24, 0xFF	; 255
 3ea:	87 bb       	out	0x17, r24	; 23
 3ec:	08 95       	ret

Disassembly of section .text.H7segment_write_number:

000002a6 <H7segment_write_number>:
}
void H7segment_write_number(int number)
{
	switch (number)
 2a6:	8a 30       	cpi	r24, 0x0A	; 10
 2a8:	91 05       	cpc	r25, r1
 2aa:	10 f5       	brcc	.+68     	; 0x2f0 <H7segment_write_number+0x4a>
 2ac:	fc 01       	movw	r30, r24
 2ae:	e6 5d       	subi	r30, 0xD6	; 214
 2b0:	ff 4f       	sbci	r31, 0xFF	; 255
 2b2:	0c 94 ec 01 	jmp	0x3d8	; 0x3d8 <__tablejump2__>
	{
		case 0:
		PORTD = 0b00111111;
 2b6:	8f e3       	ldi	r24, 0x3F	; 63
 2b8:	82 bb       	out	0x12, r24	; 18
		break;
 2ba:	08 95       	ret
		
		case 1:
		PORTD = 0b00000110;
 2bc:	86 e0       	ldi	r24, 0x06	; 6
 2be:	82 bb       	out	0x12, r24	; 18
		break;
 2c0:	08 95       	ret
		
		case 2:
		PORTD = 0b11011011;
 2c2:	8b ed       	ldi	r24, 0xDB	; 219
 2c4:	82 bb       	out	0x12, r24	; 18
		break;
 2c6:	08 95       	ret
		
		case 3:
		PORTD = 0b11001111;
 2c8:	8f ec       	ldi	r24, 0xCF	; 207
 2ca:	82 bb       	out	0x12, r24	; 18
		break;
 2cc:	08 95       	ret
		
		case 4:
		PORTD = 0b01100110;
 2ce:	86 e6       	ldi	r24, 0x66	; 102
 2d0:	82 bb       	out	0x12, r24	; 18
		break;
 2d2:	08 95       	ret
		
		case 5:
		PORTD = 0b01101101;
 2d4:	8d e6       	ldi	r24, 0x6D	; 109
 2d6:	82 bb       	out	0x12, r24	; 18
		break;
 2d8:	08 95       	ret
		
		case 6:
		PORTD = 0b01111101;
 2da:	8d e7       	ldi	r24, 0x7D	; 125
 2dc:	82 bb       	out	0x12, r24	; 18
		break;
 2de:	08 95       	ret
		
		case 7:
		PORTD = 0b00000111;
 2e0:	87 e0       	ldi	r24, 0x07	; 7
 2e2:	82 bb       	out	0x12, r24	; 18
		break;
 2e4:	08 95       	ret
		
		case 8:
		PORTD = 0b01111111;
 2e6:	8f e7       	ldi	r24, 0x7F	; 127
 2e8:	82 bb       	out	0x12, r24	; 18
		break;
 2ea:	08 95       	ret
		
		case 9:
		PORTD = 0b01100111;
 2ec:	87 e6       	ldi	r24, 0x67	; 103
 2ee:	82 bb       	out	0x12, r24	; 18
 2f0:	08 95       	ret

Disassembly of section .text.H7segment_Enable_left:

000003ee <H7segment_Enable_left>:
		break;	
	}
}

void H7segment_Enable_left()
{PORTB &= ~(1<<6);}
 3ee:	88 b3       	in	r24, 0x18	; 24
 3f0:	8f 7b       	andi	r24, 0xBF	; 191
 3f2:	88 bb       	out	0x18, r24	; 24
 3f4:	08 95       	ret

Disassembly of section .text.H7segment_Disable_left:

000003f6 <H7segment_Disable_left>:
	
void H7segment_Disable_left()
{PORTB |= (1<<6);}
 3f6:	88 b3       	in	r24, 0x18	; 24
 3f8:	80 64       	ori	r24, 0x40	; 64
 3fa:	88 bb       	out	0x18, r24	; 24
 3fc:	08 95       	ret

Disassembly of section .text.H7segment_Enable_right:

000003fe <H7segment_Enable_right>:
	
void H7segment_Enable_right()
{PORTB &= ~(1<<7);}
 3fe:	88 b3       	in	r24, 0x18	; 24
 400:	8f 77       	andi	r24, 0x7F	; 127
 402:	88 bb       	out	0x18, r24	; 24
 404:	08 95       	ret

Disassembly of section .text.H7segment_Disable_right:

00000406 <H7segment_Disable_right>:
	
void H7segment_Disable_right()
{PORTB |= (1<<7);}
 406:	88 b3       	in	r24, 0x18	; 24
 408:	80 68       	ori	r24, 0x80	; 128
 40a:	88 bb       	out	0x18, r24	; 24
 40c:	08 95       	ret

Disassembly of section .text.H7segment_operation:

00000212 <H7segment_operation>:
	
void H7segment_operation(uint16_t number)
{
 212:	cf 93       	push	r28
 214:	df 93       	push	r29
 216:	ac 01       	movw	r20, r24
	int right_num;
	int left_num;
		right_num = number%10;
 218:	9c 01       	movw	r18, r24
 21a:	ad ec       	ldi	r26, 0xCD	; 205
 21c:	bc ec       	ldi	r27, 0xCC	; 204
 21e:	0e 94 b9 01 	call	0x372	; 0x372 <__umulhisi3>
 222:	ec 01       	movw	r28, r24
 224:	d6 95       	lsr	r29
 226:	c7 95       	ror	r28
 228:	d6 95       	lsr	r29
 22a:	c7 95       	ror	r28
 22c:	d6 95       	lsr	r29
 22e:	c7 95       	ror	r28
 230:	ce 01       	movw	r24, r28
 232:	88 0f       	add	r24, r24
 234:	99 1f       	adc	r25, r25
 236:	cc 0f       	add	r28, r28
 238:	dd 1f       	adc	r29, r29
 23a:	cc 0f       	add	r28, r28
 23c:	dd 1f       	adc	r29, r29
 23e:	cc 0f       	add	r28, r28
 240:	dd 1f       	adc	r29, r29
 242:	c8 0f       	add	r28, r24
 244:	d9 1f       	adc	r29, r25
 246:	ca 01       	movw	r24, r20
 248:	8c 1b       	sub	r24, r28
 24a:	9d 0b       	sbc	r25, r29
 24c:	ec 01       	movw	r28, r24
		left_num = number/10;
 24e:	0e 94 b9 01 	call	0x372	; 0x372 <__umulhisi3>
		H7segment_write_number(left_num);
 252:	96 95       	lsr	r25
 254:	87 95       	ror	r24
 256:	96 95       	lsr	r25
 258:	87 95       	ror	r24
 25a:	96 95       	lsr	r25
 25c:	87 95       	ror	r24
 25e:	0e 94 53 01 	call	0x2a6	; 0x2a6 <H7segment_write_number>
		H7segment_Enable_left();
 262:	0e 94 f7 01 	call	0x3ee	; 0x3ee <H7segment_Enable_left>
		H7segment_Disable_right();
 266:	0e 94 03 02 	call	0x406	; 0x406 <H7segment_Disable_right>
	#else
		//round up by default
		__ticks_dc = (uint32_t)(ceil(fabs(__tmp)));
	#endif

	__builtin_avr_delay_cycles(__ticks_dc);
 26a:	83 ec       	ldi	r24, 0xC3	; 195
 26c:	99 e0       	ldi	r25, 0x09	; 9
 26e:	01 97       	sbiw	r24, 0x01	; 1
 270:	f1 f7       	brne	.-4      	; 0x26e <H7segment_operation+0x5c>
 272:	00 c0       	rjmp	.+0      	; 0x274 <H7segment_operation+0x62>
 274:	00 00       	nop
		_delay_ms(10);
		H7segment_Disable_left();
 276:	0e 94 fb 01 	call	0x3f6	; 0x3f6 <H7segment_Disable_left>
		H7segment_Disable_right();
 27a:	0e 94 03 02 	call	0x406	; 0x406 <H7segment_Disable_right>
		H7segment_write_number(right_num);
 27e:	ce 01       	movw	r24, r28
 280:	0e 94 53 01 	call	0x2a6	; 0x2a6 <H7segment_write_number>
		H7segment_Enable_right();
 284:	0e 94 ff 01 	call	0x3fe	; 0x3fe <H7segment_Enable_right>
		H7segment_Disable_left();
 288:	0e 94 fb 01 	call	0x3f6	; 0x3f6 <H7segment_Disable_left>
 28c:	83 ec       	ldi	r24, 0xC3	; 195
 28e:	99 e0       	ldi	r25, 0x09	; 9
 290:	01 97       	sbiw	r24, 0x01	; 1
 292:	f1 f7       	brne	.-4      	; 0x290 <H7segment_operation+0x7e>
 294:	00 c0       	rjmp	.+0      	; 0x296 <H7segment_operation+0x84>
 296:	00 00       	nop
		_delay_ms(10);
		H7segment_Disable_right();
 298:	0e 94 03 02 	call	0x406	; 0x406 <H7segment_Disable_right>
        H7segment_Disable_left();		
 29c:	0e 94 fb 01 	call	0x3f6	; 0x3f6 <H7segment_Disable_left>
}
 2a0:	df 91       	pop	r29
 2a2:	cf 91       	pop	r28
 2a4:	08 95       	ret

Disassembly of section .text.PB_init:

00000412 <PB_init>:
#include <avr/delay.h>


void PB_init()
{
	DDRC = 0b00000000;
 412:	14 ba       	out	0x14, r1	; 20
 414:	08 95       	ret

Disassembly of section .text.main:

00000080 <main>:
#include "MCAL/MEEPROM/MEEPROM-interface.h"


int main(void)
{
	DDRA &= ~(1<<0);
  80:	8a b3       	in	r24, 0x1a	; 26
  82:	8e 7f       	andi	r24, 0xFE	; 254
  84:	8a bb       	out	0x1a, r24	; 26
	DDRB = 0xff;
  86:	8f ef       	ldi	r24, 0xFF	; 255
  88:	87 bb       	out	0x17, r24	; 23
	char first_num;
	char sec_num;
	int right_n;
	int left_n;
	
	PB_init();
  8a:	0e 94 09 02 	call	0x412	; 0x412 <PB_init>
    init_ADC();
  8e:	0e 94 c8 01 	call	0x390	; 0x390 <init_ADC>
	H7sgment_init(); 
  92:	0e 94 f2 01 	call	0x3e4	; 0x3e4 <H7sgment_init>
	int button = 0;
	int flag;
	double voltage;
	double temperature;
	int _temperature;
	int average_cel =0;
  96:	a1 2c       	mov	r10, r1
  98:	b1 2c       	mov	r11, r1
int main(void)
{
	DDRA &= ~(1<<0);
	DDRB = 0xff;
	int temp = 60;
	int button = 0;
  9a:	e1 2c       	mov	r14, r1
  9c:	f1 2c       	mov	r15, r1

int main(void)
{
	DDRA &= ~(1<<0);
	DDRB = 0xff;
	int temp = 60;
  9e:	0c e3       	ldi	r16, 0x3C	; 60
  a0:	10 e0       	ldi	r17, 0x00	; 0
    init_ADC();
	H7sgment_init(); 
    while(1)
    {
		
			if (PINC&(1<<2))
  a2:	9a 9b       	sbis	0x13, 2	; 19
  a4:	07 c0       	rjmp	.+14     	; 0xb4 <main+0x34>
			{
				while(PINC&(1<<2));
  a6:	9a 99       	sbic	0x13, 2	; 19
  a8:	fe cf       	rjmp	.-4      	; 0xa6 <main+0x26>
				button =1;
				flag =0;
  aa:	c1 2c       	mov	r12, r1
  ac:	d1 2c       	mov	r13, r1
    {
		
			if (PINC&(1<<2))
			{
				while(PINC&(1<<2));
				button =1;
  ae:	ee 24       	eor	r14, r14
  b0:	e3 94       	inc	r14
  b2:	f1 2c       	mov	r15, r1
				flag =0;
			}
		if ((flag == 0) & (button ==1))
  b4:	91 e0       	ldi	r25, 0x01	; 1
  b6:	c1 14       	cp	r12, r1
  b8:	d1 04       	cpc	r13, r1
  ba:	09 f0       	breq	.+2      	; 0xbe <main+0x3e>
  bc:	90 e0       	ldi	r25, 0x00	; 0
  be:	81 e0       	ldi	r24, 0x01	; 1
  c0:	21 e0       	ldi	r18, 0x01	; 1
  c2:	e2 16       	cp	r14, r18
  c4:	f1 04       	cpc	r15, r1
  c6:	09 f0       	breq	.+2      	; 0xca <main+0x4a>
  c8:	80 e0       	ldi	r24, 0x00	; 0
  ca:	89 23       	and	r24, r25
  cc:	09 f5       	brne	.+66     	; 0x110 <main+0x90>
  ce:	e9 cf       	rjmp	.-46     	; 0xa2 <main+0x22>
		
		{
	
			for (int i=0; i<10 ;i++)
			{
				voltage = (ADC_read(0)/2)*76;
  d0:	80 e0       	ldi	r24, 0x00	; 0
  d2:	90 e0       	ldi	r25, 0x00	; 0
  d4:	0e 94 79 01 	call	0x2f2	; 0x2f2 <ADC_read>
  d8:	99 23       	and	r25, r25
  da:	0c f4       	brge	.+2      	; 0xde <main+0x5e>
  dc:	01 96       	adiw	r24, 0x01	; 1
  de:	9c 01       	movw	r18, r24
  e0:	35 95       	asr	r19
  e2:	27 95       	ror	r18
  e4:	4c e4       	ldi	r20, 0x4C	; 76
  e6:	42 9f       	mul	r20, r18
  e8:	c0 01       	movw	r24, r0
  ea:	43 9f       	mul	r20, r19
  ec:	90 0d       	add	r25, r0
  ee:	11 24       	eor	r1, r1
				_temperature = (((int)voltage)/84)-1;
  f0:	64 e5       	ldi	r22, 0x54	; 84
  f2:	70 e0       	ldi	r23, 0x00	; 0
  f4:	0e 94 91 01 	call	0x322	; 0x322 <__divmodhi4>
  f8:	61 50       	subi	r22, 0x01	; 1
  fa:	71 09       	sbc	r23, r1
				average_cel += _temperature;
  fc:	a6 0e       	add	r10, r22
  fe:	b7 1e       	adc	r11, r23
 100:	89 e6       	ldi	r24, 0x69	; 105
 102:	98 e1       	ldi	r25, 0x18	; 24
 104:	01 97       	sbiw	r24, 0x01	; 1
 106:	f1 f7       	brne	.-4      	; 0x104 <main+0x84>
 108:	00 c0       	rjmp	.+0      	; 0x10a <main+0x8a>
 10a:	00 00       	nop
			}
		if ((flag == 0) & (button ==1))
		
		{
	
			for (int i=0; i<10 ;i++)
 10c:	21 96       	adiw	r28, 0x01	; 1
 10e:	02 c0       	rjmp	.+4      	; 0x114 <main+0x94>
 110:	c0 e0       	ldi	r28, 0x00	; 0
 112:	d0 e0       	ldi	r29, 0x00	; 0
 114:	ca 30       	cpi	r28, 0x0A	; 10
 116:	d1 05       	cpc	r29, r1
 118:	dc f2       	brlt	.-74     	; 0xd0 <main+0x50>
				voltage = (ADC_read(0)/2)*76;
				_temperature = (((int)voltage)/84)-1;
				average_cel += _temperature;
				_delay_ms(25);
			}
			average_cel /=10;
 11a:	c5 01       	movw	r24, r10
 11c:	6a e0       	ldi	r22, 0x0A	; 10
 11e:	70 e0       	ldi	r23, 0x00	; 0
 120:	0e 94 91 01 	call	0x322	; 0x322 <__divmodhi4>
 124:	86 2f       	mov	r24, r22
 126:	97 2f       	mov	r25, r23
 128:	a6 2e       	mov	r10, r22
 12a:	b7 2e       	mov	r11, r23
			H7segment_operation(average_cel);
 12c:	0e 94 09 01 	call	0x212	; 0x212 <H7segment_operation>
			
			if ((PINC&(1<<0))|(PINC&(1<<1)))
 130:	93 b3       	in	r25, 0x13	; 19
 132:	83 b3       	in	r24, 0x13	; 19
 134:	91 70       	andi	r25, 0x01	; 1
 136:	82 70       	andi	r24, 0x02	; 2
 138:	89 2b       	or	r24, r25
 13a:	29 f1       	breq	.+74     	; 0x186 <main+0x106>
			{
				if(PINC & (1<<0))
 13c:	98 9b       	sbis	0x13, 0	; 19
 13e:	05 c0       	rjmp	.+10     	; 0x14a <main+0xca>
				{
					while( PINC&(1<<0));
 140:	98 99       	sbic	0x13, 0	; 19
 142:	fe cf       	rjmp	.-4      	; 0x140 <main+0xc0>
					temp+=5;
 144:	0b 5f       	subi	r16, 0xFB	; 251
 146:	1f 4f       	sbci	r17, 0xFF	; 255
 148:	06 c0       	rjmp	.+12     	; 0x156 <main+0xd6>
				}
				else if(PINC&(1<<1))
 14a:	99 9b       	sbis	0x13, 1	; 19
 14c:	04 c0       	rjmp	.+8      	; 0x156 <main+0xd6>
				{
					while(PINC&(1<<1));
 14e:	99 99       	sbic	0x13, 1	; 19
 150:	fe cf       	rjmp	.-4      	; 0x14e <main+0xce>
					temp -=5;
 152:	05 50       	subi	r16, 0x05	; 5
 154:	11 09       	sbc	r17, r1
				}
				if ((temp>=35)&&(temp<=75))
 156:	90 2e       	mov	r9, r16
 158:	81 2e       	mov	r8, r17
 15a:	c8 01       	movw	r24, r16
 15c:	83 97       	sbiw	r24, 0x23	; 35
 15e:	89 97       	sbiw	r24, 0x29	; 41
 160:	68 f0       	brcs	.+26     	; 0x17c <main+0xfc>
 162:	11 c0       	rjmp	.+34     	; 0x186 <main+0x106>
				{
					for(int i=0 ; i<5 ; i++)
					{
						H7segment_operation(temp);
 164:	89 2d       	mov	r24, r9
 166:	98 2d       	mov	r25, r8
 168:	0e 94 09 01 	call	0x212	; 0x212 <H7segment_operation>
 16c:	89 e6       	ldi	r24, 0x69	; 105
 16e:	98 e1       	ldi	r25, 0x18	; 24
 170:	01 97       	sbiw	r24, 0x01	; 1
 172:	f1 f7       	brne	.-4      	; 0x170 <main+0xf0>
 174:	00 c0       	rjmp	.+0      	; 0x176 <main+0xf6>
 176:	00 00       	nop
					while(PINC&(1<<1));
					temp -=5;
				}
				if ((temp>=35)&&(temp<=75))
				{
					for(int i=0 ; i<5 ; i++)
 178:	21 96       	adiw	r28, 0x01	; 1
 17a:	02 c0       	rjmp	.+4      	; 0x180 <main+0x100>
 17c:	c0 e0       	ldi	r28, 0x00	; 0
 17e:	d0 e0       	ldi	r29, 0x00	; 0
 180:	c5 30       	cpi	r28, 0x05	; 5
 182:	d1 05       	cpc	r29, r1
 184:	7c f3       	brlt	.-34     	; 0x164 <main+0xe4>
						_delay_ms(25);            //1000
					}
				}
			}
			
			if (average_cel < temp)
 186:	a0 16       	cp	r10, r16
 188:	b1 06       	cpc	r11, r17
 18a:	74 f4       	brge	.+28     	; 0x1a8 <main+0x128>
			{
				PORTB |= (1<<0);
 18c:	88 b3       	in	r24, 0x18	; 24
 18e:	81 60       	ori	r24, 0x01	; 1
 190:	88 bb       	out	0x18, r24	; 24
				PORTB ^= (1<<1);
 192:	98 b3       	in	r25, 0x18	; 24
 194:	82 e0       	ldi	r24, 0x02	; 2
 196:	89 27       	eor	r24, r25
 198:	88 bb       	out	0x18, r24	; 24
 19a:	89 e6       	ldi	r24, 0x69	; 105
 19c:	98 e1       	ldi	r25, 0x18	; 24
 19e:	01 97       	sbiw	r24, 0x01	; 1
 1a0:	f1 f7       	brne	.-4      	; 0x19e <main+0x11e>
 1a2:	00 c0       	rjmp	.+0      	; 0x1a4 <main+0x124>
 1a4:	00 00       	nop
 1a6:	19 c0       	rjmp	.+50     	; 0x1da <main+0x15a>
				_delay_ms(25);                  //1000
			}
			else if (average_cel==temp)
 1a8:	0a 15       	cp	r16, r10
 1aa:	1b 05       	cpc	r17, r11
 1ac:	51 f4       	brne	.+20     	; 0x1c2 <main+0x142>
			{
				PORTB &= ~(1<<0);
 1ae:	88 b3       	in	r24, 0x18	; 24
 1b0:	8e 7f       	andi	r24, 0xFE	; 254
 1b2:	88 bb       	out	0x18, r24	; 24
				PORTB &= ~(1<<1);
 1b4:	88 b3       	in	r24, 0x18	; 24
 1b6:	8d 7f       	andi	r24, 0xFD	; 253
 1b8:	88 bb       	out	0x18, r24	; 24
				PORTB &= ~(1<<2);
 1ba:	88 b3       	in	r24, 0x18	; 24
 1bc:	8b 7f       	andi	r24, 0xFB	; 251
 1be:	88 bb       	out	0x18, r24	; 24
 1c0:	0c c0       	rjmp	.+24     	; 0x1da <main+0x15a>
			}
			else if (average_cel > temp)
 1c2:	0a 15       	cp	r16, r10
 1c4:	1b 05       	cpc	r17, r11
 1c6:	4c f4       	brge	.+18     	; 0x1da <main+0x15a>
			{
				PORTB &= ~(1<<0);
 1c8:	88 b3       	in	r24, 0x18	; 24
 1ca:	8e 7f       	andi	r24, 0xFE	; 254
 1cc:	88 bb       	out	0x18, r24	; 24
				PORTB |= (1<<2);
 1ce:	88 b3       	in	r24, 0x18	; 24
 1d0:	84 60       	ori	r24, 0x04	; 4
 1d2:	88 bb       	out	0x18, r24	; 24
				PORTB |= (1<<1);
 1d4:	88 b3       	in	r24, 0x18	; 24
 1d6:	82 60       	ori	r24, 0x02	; 2
 1d8:	88 bb       	out	0x18, r24	; 24
			}
						//first_num = MEEPROM_read(0x00) - '0';
						//sec_num = MEEPROM_read(0x01) - '0';
						//temp = (first_num * 10) + sec_num;
			if ((PINC&(1<<2)))
 1da:	9a 9b       	sbis	0x13, 2	; 19
 1dc:	62 cf       	rjmp	.-316    	; 0xa2 <main+0x22>
			{
				while(PINC&(1<<2));
 1de:	9a 99       	sbic	0x13, 2	; 19
 1e0:	fe cf       	rjmp	.-4      	; 0x1de <main+0x15e>
				DDRD = 0x00;
 1e2:	11 ba       	out	0x11, r1	; 17
				button = 0;
				flag = 1;
				
					right_n = temp%10;
 1e4:	c8 01       	movw	r24, r16
 1e6:	6a e0       	ldi	r22, 0x0A	; 10
 1e8:	70 e0       	ldi	r23, 0x00	; 0
 1ea:	0e 94 91 01 	call	0x322	; 0x322 <__divmodhi4>
 1ee:	c8 2f       	mov	r28, r24
					left_n = temp/10;
				MEEPROM_write(0x00 ,(left_n+'0'));
 1f0:	60 5d       	subi	r22, 0xD0	; 208
 1f2:	80 e0       	ldi	r24, 0x00	; 0
 1f4:	90 e0       	ldi	r25, 0x00	; 0
 1f6:	0e 94 d5 01 	call	0x3aa	; 0x3aa <MEEPROM_write>
				MEEPROM_write(0x01 ,(right_n+'0'));
 1fa:	60 e3       	ldi	r22, 0x30	; 48
 1fc:	6c 0f       	add	r22, r28
 1fe:	81 e0       	ldi	r24, 0x01	; 1
 200:	90 e0       	ldi	r25, 0x00	; 0
 202:	0e 94 d5 01 	call	0x3aa	; 0x3aa <MEEPROM_write>
			if ((PINC&(1<<2)))
			{
				while(PINC&(1<<2));
				DDRD = 0x00;
				button = 0;
				flag = 1;
 206:	cc 24       	eor	r12, r12
 208:	c3 94       	inc	r12
 20a:	d1 2c       	mov	r13, r1
						//temp = (first_num * 10) + sec_num;
			if ((PINC&(1<<2)))
			{
				while(PINC&(1<<2));
				DDRD = 0x00;
				button = 0;
 20c:	e1 2c       	mov	r14, r1
 20e:	f1 2c       	mov	r15, r1
 210:	48 cf       	rjmp	.-368    	; 0xa2 <main+0x22>

Disassembly of section .text.init_ADC:

00000390 <init_ADC>:
#include <stdlib.h>
#include "MADC_interface.h"

void init_ADC(void)
{
	ADMUX  |= (1<<REFS0);   //voltage reference from internal (REFS1(bit no. 7) ,, REFS0(bit no. 6))
 390:	87 b1       	in	r24, 0x07	; 7
 392:	80 64       	ori	r24, 0x40	; 64
 394:	87 b9       	out	0x07, r24	; 7
	ADCSRA |= (1<<ADEN);    // turn on ADC (bit no. 7)
 396:	86 b1       	in	r24, 0x06	; 6
 398:	80 68       	ori	r24, 0x80	; 128
 39a:	86 b9       	out	0x06, r24	; 6
	ADCSRA |= (1<<ADSC);
 39c:	86 b1       	in	r24, 0x06	; 6
 39e:	80 64       	ori	r24, 0x40	; 64
 3a0:	86 b9       	out	0x06, r24	; 6
	ADCSRA |= ((1<<ADPS2)|(1<<ADPS1)|(1<<ADPS0));  //8MHZ/128 = 62,500HZ the ADC reference clock
 3a2:	86 b1       	in	r24, 0x06	; 6
 3a4:	87 60       	ori	r24, 0x07	; 7
 3a6:	86 b9       	out	0x06, r24	; 6
 3a8:	08 95       	ret

Disassembly of section .text.ADC_read:

000002f2 <ADC_read>:
}
uint16_t ADC_read(int channel)
{
	int Ain;
	int Ainlow;
	ADMUX &= 0xF0;                    // clear the older channel that was read
 2f2:	97 b1       	in	r25, 0x07	; 7
 2f4:	90 7f       	andi	r25, 0xF0	; 240
 2f6:	97 b9       	out	0x07, r25	; 7
	ADMUX |= channel;                // Defines the new ADC channel to be read
 2f8:	97 b1       	in	r25, 0x07	; 7
 2fa:	89 2b       	or	r24, r25
 2fc:	87 b9       	out	0x07, r24	; 7
	ADCSRA |= (1<<ADSC);            //start a new conversion (single conversion)
 2fe:	86 b1       	in	r24, 0x06	; 6
 300:	80 64       	ori	r24, 0x40	; 64
 302:	86 b9       	out	0x06, r24	; 6
	while((ADCSRA&(1<<ADSC))==1);   //wait until the conversion is done
 304:	86 b1       	in	r24, 0x06	; 6
 306:	83 ec       	ldi	r24, 0xC3	; 195
 308:	99 e0       	ldi	r25, 0x09	; 9
 30a:	01 97       	sbiw	r24, 0x01	; 1
 30c:	f1 f7       	brne	.-4      	; 0x30a <ADC_read+0x18>
 30e:	00 c0       	rjmp	.+0      	; 0x310 <ADC_read+0x1e>
 310:	00 00       	nop
	_delay_ms(10);
	Ainlow = (int) ADCL;
 312:	24 b1       	in	r18, 0x04	; 4
	Ain = (int)ADCH*256;
 314:	85 b1       	in	r24, 0x05	; 5
 316:	90 e0       	ldi	r25, 0x00	; 0
 318:	98 2f       	mov	r25, r24
 31a:	88 27       	eor	r24, r24
	Ain = Ain + Ainlow;
	return Ain;
	
}
 31c:	82 0f       	add	r24, r18
 31e:	91 1d       	adc	r25, r1
 320:	08 95       	ret

Disassembly of section .text.MEEPROM_write:

000003aa <MEEPROM_write>:
#include <avr/delay.h>


void MEEPROM_write(unsigned int EAddress , unsigned char Data)
{
	while (EECR & (1<<EEWE));
 3aa:	e1 99       	sbic	0x1c, 1	; 28
 3ac:	fe cf       	rjmp	.-4      	; 0x3aa <MEEPROM_write>
	
	EEAR = EAddress;
 3ae:	9f bb       	out	0x1f, r25	; 31
 3b0:	8e bb       	out	0x1e, r24	; 30
	EEDR = Data;
 3b2:	6d bb       	out	0x1d, r22	; 29
	
	EECR |= (1<<EEMWE);
 3b4:	8c b3       	in	r24, 0x1c	; 28
 3b6:	84 60       	ori	r24, 0x04	; 4
 3b8:	8c bb       	out	0x1c, r24	; 28
	EECR |= (EEWE);
 3ba:	8c b3       	in	r24, 0x1c	; 28
 3bc:	81 60       	ori	r24, 0x01	; 1
 3be:	8c bb       	out	0x1c, r24	; 28
 3c0:	08 95       	ret

Disassembly of section .text.libgcc.div:

00000322 <__divmodhi4>:
 322:	97 fb       	bst	r25, 7
 324:	07 2e       	mov	r0, r23
 326:	16 f4       	brtc	.+4      	; 0x32c <__divmodhi4+0xa>
 328:	00 94       	com	r0
 32a:	07 d0       	rcall	.+14     	; 0x33a <__divmodhi4_neg1>
 32c:	77 fd       	sbrc	r23, 7
 32e:	09 d0       	rcall	.+18     	; 0x342 <__divmodhi4_neg2>
 330:	0e 94 a5 01 	call	0x34a	; 0x34a <__udivmodhi4>
 334:	07 fc       	sbrc	r0, 7
 336:	05 d0       	rcall	.+10     	; 0x342 <__divmodhi4_neg2>
 338:	3e f4       	brtc	.+14     	; 0x348 <__divmodhi4_exit>

0000033a <__divmodhi4_neg1>:
 33a:	90 95       	com	r25
 33c:	81 95       	neg	r24
 33e:	9f 4f       	sbci	r25, 0xFF	; 255
 340:	08 95       	ret

00000342 <__divmodhi4_neg2>:
 342:	70 95       	com	r23
 344:	61 95       	neg	r22
 346:	7f 4f       	sbci	r23, 0xFF	; 255

00000348 <__divmodhi4_exit>:
 348:	08 95       	ret

Disassembly of section .text.libgcc:

000003d8 <__tablejump2__>:
 3d8:	ee 0f       	add	r30, r30
 3da:	ff 1f       	adc	r31, r31
 3dc:	05 90       	lpm	r0, Z+
 3de:	f4 91       	lpm	r31, Z
 3e0:	e0 2d       	mov	r30, r0
 3e2:	09 94       	ijmp

Disassembly of section .text.libgcc.mul:

00000372 <__umulhisi3>:
 372:	a2 9f       	mul	r26, r18
 374:	b0 01       	movw	r22, r0
 376:	b3 9f       	mul	r27, r19
 378:	c0 01       	movw	r24, r0
 37a:	a3 9f       	mul	r26, r19
 37c:	70 0d       	add	r23, r0
 37e:	81 1d       	adc	r24, r1
 380:	11 24       	eor	r1, r1
 382:	91 1d       	adc	r25, r1
 384:	b2 9f       	mul	r27, r18
 386:	70 0d       	add	r23, r0
 388:	81 1d       	adc	r24, r1
 38a:	11 24       	eor	r1, r1
 38c:	91 1d       	adc	r25, r1
 38e:	08 95       	ret

Disassembly of section .text.libgcc.div:

0000034a <__udivmodhi4>:
 34a:	aa 1b       	sub	r26, r26
 34c:	bb 1b       	sub	r27, r27
 34e:	51 e1       	ldi	r21, 0x11	; 17
 350:	07 c0       	rjmp	.+14     	; 0x360 <__udivmodhi4_ep>

00000352 <__udivmodhi4_loop>:
 352:	aa 1f       	adc	r26, r26
 354:	bb 1f       	adc	r27, r27
 356:	a6 17       	cp	r26, r22
 358:	b7 07       	cpc	r27, r23
 35a:	10 f0       	brcs	.+4      	; 0x360 <__udivmodhi4_ep>
 35c:	a6 1b       	sub	r26, r22
 35e:	b7 0b       	sbc	r27, r23

00000360 <__udivmodhi4_ep>:
 360:	88 1f       	adc	r24, r24
 362:	99 1f       	adc	r25, r25
 364:	5a 95       	dec	r21
 366:	a9 f7       	brne	.-22     	; 0x352 <__udivmodhi4_loop>
 368:	80 95       	com	r24
 36a:	90 95       	com	r25
 36c:	bc 01       	movw	r22, r24
 36e:	cd 01       	movw	r24, r26
 370:	08 95       	ret

Disassembly of section .text.__dummy_fini:

0000041a <_fini>:
 41a:	08 95       	ret

Disassembly of section .text.__dummy_funcs_on_exit:

0000041c <__funcs_on_exit>:
 41c:	08 95       	ret

Disassembly of section .text.__dummy_simulator_exit:

0000041e <__simulator_exit>:
 41e:	08 95       	ret

Disassembly of section .text.exit:

000003c2 <exit>:
 3c2:	ec 01       	movw	r28, r24
 3c4:	0e 94 0e 02 	call	0x41c	; 0x41c <__funcs_on_exit>
 3c8:	0e 94 0d 02 	call	0x41a	; 0x41a <_fini>
 3cc:	ce 01       	movw	r24, r28
 3ce:	0e 94 0f 02 	call	0x41e	; 0x41e <__simulator_exit>
 3d2:	ce 01       	movw	r24, r28
 3d4:	0e 94 0b 02 	call	0x416	; 0x416 <_Exit>

Disassembly of section .text._Exit:

00000416 <_Exit>:
 416:	0e 94 3e 00 	call	0x7c	; 0x7c <_exit>
